target datalayout = "e-m:e-p270:32:32-p271:32:32-p272:64:64-i64:64-i128:128-f80:128-n8:16:32:64-S128"
target triple = "x86_64-pc-linux-gnu"

%struct.pg_md5_ctx = type { %union.anon, %union.anon.0, i32, [64 x i8] }
%union.anon = type { [4 x i32] }
%union.anon.0 = type { i64 }

@md5_paddat = internal constant <{ i8, [63 x i8] }> <{ i8 -128, [63 x i8] zeroinitializer }>, align 16

; Function Attrs: nounwind uwtable
define internal void @md5_result(ptr noundef %0, ptr noundef %1) #0 {
  %3 = alloca ptr, align 8
  %4 = alloca ptr, align 8
  store ptr %0, ptr %3, align 8
  store ptr %1, ptr %4, align 8
  %5 = load ptr, ptr %3, align 8
  %6 = load ptr, ptr %4, align 8
  %7 = getelementptr inbounds nuw %struct.pg_md5_ctx, ptr %6, i32 0, i32 0
  %8 = getelementptr inbounds [16 x i8], ptr %7, i64 0, i64 0
  call void @llvm.memmove.p0.p0.i64(ptr align 1 %5, ptr align 8 %8, i64 16, i1 false)
  ret void
}

; Function Attrs: nounwind uwtable
define internal void @md5_pad(ptr noundef %0) #0 {
  %2 = alloca ptr, align 8
  %3 = alloca i32, align 4
  store ptr %0, ptr %2, align 8
  call void @llvm.lifetime.start.p0(i64 4, ptr %3) #4
  %4 = load ptr, ptr %2, align 8
  %5 = getelementptr inbounds nuw %struct.pg_md5_ctx, ptr %4, i32 0, i32 2
  %6 = load i32, ptr %5, align 8
  %7 = sub i32 64, %6
  store i32 %7, ptr %3, align 4
  %8 = load i32, ptr %3, align 4
  %9 = icmp ugt i32 %8, 8
  br i1 %9, label %10, label %22

10:                                               ; preds = %1
  %11 = load ptr, ptr %2, align 8
  %12 = getelementptr inbounds nuw %struct.pg_md5_ctx, ptr %11, i32 0, i32 3
  %13 = getelementptr inbounds [64 x i8], ptr %12, i64 0, i64 0
  %14 = load ptr, ptr %2, align 8
  %15 = getelementptr inbounds nuw %struct.pg_md5_ctx, ptr %14, i32 0, i32 2
  %16 = load i32, ptr %15, align 8
  %17 = zext i32 %16 to i64
  %18 = getelementptr inbounds nuw i8, ptr %13, i64 %17
  %19 = load i32, ptr %3, align 4
  %20 = zext i32 %19 to i64
  %21 = sub i64 %20, 8
  call void @llvm.memmove.p0.p0.i64(ptr align 1 %18, ptr align 16 @md5_paddat, i64 %21, i1 false)
  br label %43

22:                                               ; preds = %1
  %23 = load ptr, ptr %2, align 8
  %24 = getelementptr inbounds nuw %struct.pg_md5_ctx, ptr %23, i32 0, i32 3
  %25 = getelementptr inbounds [64 x i8], ptr %24, i64 0, i64 0
  %26 = load ptr, ptr %2, align 8
  %27 = getelementptr inbounds nuw %struct.pg_md5_ctx, ptr %26, i32 0, i32 2
  %28 = load i32, ptr %27, align 8
  %29 = zext i32 %28 to i64
  %30 = getelementptr inbounds nuw i8, ptr %25, i64 %29
  %31 = load i32, ptr %3, align 4
  %32 = zext i32 %31 to i64
  call void @llvm.memmove.p0.p0.i64(ptr align 1 %30, ptr align 16 @md5_paddat, i64 %32, i1 false)
  %33 = load ptr, ptr %2, align 8
  %34 = getelementptr inbounds nuw %struct.pg_md5_ctx, ptr %33, i32 0, i32 3
  %35 = getelementptr inbounds [64 x i8], ptr %34, i64 0, i64 0
  %36 = load ptr, ptr %2, align 8
  call void @md5_calc(ptr noundef %35, ptr noundef %36)
  %37 = load ptr, ptr %2, align 8
  %38 = getelementptr inbounds nuw %struct.pg_md5_ctx, ptr %37, i32 0, i32 3
  %39 = getelementptr inbounds [64 x i8], ptr %38, i64 0, i64 0
  %40 = load i32, ptr %3, align 4
  %41 = zext i32 %40 to i64
  %42 = getelementptr inbounds nuw i8, ptr @md5_paddat, i64 %41
  call void @llvm.memmove.p0.p0.i64(ptr align 4 %39, ptr align 1 %42, i64 56, i1 false)
  br label %43

43:                                               ; preds = %22, %10
  %44 = load ptr, ptr %2, align 8
  %45 = getelementptr inbounds nuw %struct.pg_md5_ctx, ptr %44, i32 0, i32 3
  %46 = getelementptr inbounds [64 x i8], ptr %45, i64 0, i64 56
  %47 = load ptr, ptr %2, align 8
  %48 = getelementptr inbounds nuw %struct.pg_md5_ctx, ptr %47, i32 0, i32 1
  %49 = getelementptr inbounds [8 x i8], ptr %48, i64 0, i64 0
  call void @llvm.memmove.p0.p0.i64(ptr align 4 %46, ptr align 8 %49, i64 8, i1 false)
  %50 = load ptr, ptr %2, align 8
  %51 = getelementptr inbounds nuw %struct.pg_md5_ctx, ptr %50, i32 0, i32 3
  %52 = getelementptr inbounds [64 x i8], ptr %51, i64 0, i64 0
  %53 = load ptr, ptr %2, align 8
  call void @md5_calc(ptr noundef %52, ptr noundef %53)
  call void @llvm.lifetime.end.p0(i64 4, ptr %3) #4
  ret void
}

; Function Attrs: nounwind uwtable
define void @pg_md5_final(ptr noundef %0, ptr noundef %1) #0 {
  %3 = alloca ptr, align 8
  %4 = alloca ptr, align 8
  store ptr %0, ptr %3, align 8
  store ptr %1, ptr %4, align 8
  %5 = load ptr, ptr %3, align 8
  call void @md5_pad(ptr noundef %5)
  %6 = load ptr, ptr %4, align 8
  %7 = load ptr, ptr %3, align 8
  call void @md5_result(ptr noundef %6, ptr noundef %7)
  ret void
}