; Function Attrs: mustprogress nofree norecurse nosync nounwind willreturn memory(argmem: readwrite) uwtable
define void @pg_md5_final(ptr noundef captures(none) %0, ptr noundef writeonly captures(none) initializes((0, 16)) %1) local_unnamed_addr #4 {
  %3 = getelementptr inbounds nuw i8, ptr %0, i64 24
  %4 = load i32, ptr %3, align 8
  %5 = sub i32 64, %4
  %6 = icmp ugt i32 %5, 8
  %7 = getelementptr inbounds nuw i8, ptr %0, i64 28
  %8 = zext i32 %4 to i64
  %9 = getelementptr inbounds nuw i8, ptr %7, i64 %8
  %10 = zext i32 %5 to i64
  br i1 %6, label %11, label %13

11:                                               ; preds = %2
  %12 = add nsw i64 %10, -8
  tail call void @llvm.memcpy.p0.p0.i64(ptr nonnull align 1 %9, ptr nonnull align 16 @md5_paddat, i64 %12, i1 false)
  br label %md5_pad.exit

13:                                               ; preds = %2
  tail call void @llvm.memcpy.p0.p0.i64(ptr nonnull align 1 %9, ptr nonnull align 16 @md5_paddat, i64 %10, i1 false)
  tail call fastcc void @md5_calc(ptr noundef nonnull %7, ptr noundef nonnull %0)
  %14 = getelementptr inbounds nuw i8, ptr @md5_paddat, i64 %10
  tail call void @llvm.memcpy.p0.p0.i64(ptr noundef nonnull align 4 dereferenceable(56) %7, ptr noundef nonnull align 1 dereferenceable(56) %14, i64 56, i1 false)
  br label %md5_pad.exit

md5_pad.exit:                                     ; preds = %11, %13
  %15 = getelementptr inbounds nuw i8, ptr %0, i64 84
  %16 = getelementptr inbounds nuw i8, ptr %0, i64 16
  %17 = load i64, ptr %16, align 8
  store i64 %17, ptr %15, align 4
  tail call fastcc void @md5_calc(ptr noundef nonnull %7, ptr noundef nonnull %0)
  tail call void @llvm.memmove.p0.p0.i64(ptr noundef nonnull align 1 dereferenceable(16) %1, ptr noundef nonnull readonly align 8 dereferenceable(16) %0, i64 16, i1 false)
  ret void
}